target datalayout = "e-m:e-p270:32:32-p271:32:32-p272:64:64-i64:64-i128:128-f80:128-n8:16:32:64-S128"
target triple = "x86_64-pc-linux-gnu"

%"class.clang::SourceLocation" = type { i32 }
%"class.clang::AttributeCommonInfo" = type { ptr, ptr, %"class.clang::SourceRange", %"class.clang::SourceLocation", i32 }
%"class.clang::SourceRange" = type { %"class.clang::SourceLocation", %"class.clang::SourceLocation" }
%"class.clang::SemaBase::SemaDiagnosticBuilder" = type { ptr, %"class.clang::SourceLocation", i32, ptr, i8, [7 x i8], %"class.std::optional.1034", %"class.std::optional.1044" }
%"class.std::optional.1034" = type { %"struct.std::_Optional_base.1035" }
%"struct.std::_Optional_base.1035" = type { %"struct.std::_Optional_payload.1037" }
%"struct.std::_Optional_payload.1037" = type { %"struct.std::_Optional_payload.base.1041", [7 x i8] }
%"struct.std::_Optional_payload.base.1041" = type { %"struct.std::_Optional_payload_base.base.1040" }
%"struct.std::_Optional_payload_base.base.1040" = type { %"union.std::_Optional_payload_base<clang::SemaBase::ImmediateDiagBuilder>::_Storage", i8 }
%"union.std::_Optional_payload_base<clang::SemaBase::ImmediateDiagBuilder>::_Storage" = type { %"class.clang::SemaBase::ImmediateDiagBuilder" }
%"class.clang::SemaBase::ImmediateDiagBuilder" = type <{ %"class.clang::DiagnosticBuilder.base", [6 x i8], ptr, i32, [4 x i8] }>
%"class.clang::DiagnosticBuilder.base" = type <{ %"class.clang::StreamingDiagnostic", ptr, i8, i8 }>
%"class.clang::StreamingDiagnostic" = type { ptr, ptr }
%"class.std::optional.1044" = type { %"struct.std::_Optional_base.1045" }
%"struct.std::_Optional_base.1045" = type { %"struct.std::_Optional_payload.1047" }
%"struct.std::_Optional_payload.1047" = type { %"struct.std::_Optional_payload_base.base.1049", [3 x i8] }
%"struct.std::_Optional_payload_base.base.1049" = type <{ %"union.std::_Optional_payload_base<unsigned int>::_Storage", i8 }>
%"union.std::_Optional_payload_base<unsigned int>::_Storage" = type { i32 }
%"class.clang::Decl" = type <{ ptr, %"class.llvm::PointerIntPair.1065", %"class.llvm::PointerUnion", %"class.clang::SourceLocation", i32, i8, [7 x i8] }>
%"class.llvm::PointerIntPair.1065" = type { %"struct.llvm::detail::PunnedPointer.1066" }
%"struct.llvm::detail::PunnedPointer.1066" = type { [8 x i8] }
%"class.llvm::PointerUnion" = type { %"class.llvm::pointer_union_detail::PointerUnionMembers" }
%"class.llvm::pointer_union_detail::PointerUnionMembers" = type { %"class.llvm::pointer_union_detail::PointerUnionMembers.1067" }
%"class.llvm::pointer_union_detail::PointerUnionMembers.1067" = type { %"class.llvm::pointer_union_detail::PointerUnionMembers.1068" }
%"class.llvm::pointer_union_detail::PointerUnionMembers.1068" = type { %"class.llvm::PointerIntPair.1069" }
%"class.llvm::PointerIntPair.1069" = type { %"struct.llvm::detail::PunnedPointer.1070" }
%"struct.llvm::detail::PunnedPointer.1070" = type { [8 x i8] }

@.str.1337 = private unnamed_addr constant [10 x i8] c"functions\00", align 1

; Function Attrs: mustprogress nounwind uwtable
define linkonce_odr hidden noundef zeroext i1 @_ZN5clang12FunctionDecl11classofKindENS_4Decl4KindE(i32 noundef %0) #0 comdat align 2 {
  %2 = alloca i32, align 4
  store i32 %0, ptr %2, align 4
  %3 = load i32, ptr %2, align 4
  %4 = icmp sge i32 %3, 31
  br i1 %4, label %5, label %8

5:                                                ; preds = %1
  %6 = load i32, ptr %2, align 4
  %7 = icmp sle i32 %6, 36
  br label %8

8:                                                ; preds = %5, %1
  %9 = phi i1 [ false, %1 ], [ %7, %5 ]
  ret i1 %9
}

; Function Attrs: mustprogress nounwind uwtable
define linkonce_odr hidden noundef i32 @_ZNK5clang4Decl7getKindEv(ptr noundef nonnull align 8 dereferenceable(33) %0) #0 comdat align 2 {
  %2 = alloca ptr, align 8
  store ptr %0, ptr %2, align 8
  %3 = load ptr, ptr %2, align 8
  %4 = getelementptr inbounds nuw %"class.clang::Decl", ptr %3, i32 0, i32 4
  %5 = load i32, ptr %4, align 4
  %6 = and i32 %5, 127
  ret i32 %6
}

; Function Attrs: mustprogress nounwind uwtable
define linkonce_odr hidden noundef zeroext i1 @_ZN5clang12FunctionDecl7classofEPKNS_4DeclE(ptr noundef %0) #0 comdat align 2 {
  %2 = alloca ptr, align 8
  store ptr %0, ptr %2, align 8
  %3 = load ptr, ptr %2, align 8
  %4 = call noundef i32 @_ZNK5clang4Decl7getKindEv(ptr noundef nonnull align 8 dereferenceable(33) %3)
  %5 = call noundef zeroext i1 @_ZN5clang12FunctionDecl11classofKindENS_4Decl4KindE(i32 noundef %4)
  ret i1 %5
}

; Function Attrs: mustprogress nounwind uwtable
define linkonce_odr hidden noundef zeroext i1 @_ZN4llvm8isa_implIN5clang12FunctionDeclENS1_4DeclEvE4doitERKS3_(ptr noundef nonnull align 8 dereferenceable(33) %0) #0 comdat align 2 {
  %2 = alloca ptr, align 8
  store ptr %0, ptr %2, align 8
  %3 = load ptr, ptr %2, align 8
  %4 = call noundef zeroext i1 @_ZN5clang12FunctionDecl7classofEPKNS_4DeclE(ptr noundef %3)
  ret i1 %4
}

; Function Attrs: mustprogress nounwind uwtable
define linkonce_odr hidden noundef zeroext i1 @_ZN4llvm11isa_impl_clIN5clang12FunctionDeclEPKNS1_4DeclEE4doitES5_(ptr noundef %0) #0 comdat align 2 {
  %2 = alloca ptr, align 8
  store ptr %0, ptr %2, align 8
  %3 = load ptr, ptr %2, align 8
  %4 = call noundef zeroext i1 @_ZN4llvm8isa_implIN5clang12FunctionDeclENS1_4DeclEvE4doitERKS3_(ptr noundef nonnull align 8 dereferenceable(33) %3)
  ret i1 %4
}

; Function Attrs: mustprogress nounwind uwtable
define linkonce_odr hidden noundef zeroext i1 @_ZN4llvm13isa_impl_wrapIN5clang12FunctionDeclEPKNS1_4DeclES5_E4doitERKS5_(ptr noundef nonnull align 8 dereferenceable(8) %0) #0 comdat align 2 {
  %2 = alloca ptr, align 8
  store ptr %0, ptr %2, align 8
  %3 = load ptr, ptr %2, align 8
  %4 = load ptr, ptr %3, align 8
  %5 = call noundef zeroext i1 @_ZN4llvm11isa_impl_clIN5clang12FunctionDeclEPKNS1_4DeclEE4doitES5_(ptr noundef %4)
  ret i1 %5
}

; Function Attrs: mustprogress nounwind uwtable
define linkonce_odr hidden noundef zeroext i1 @_ZN4llvm13isa_impl_wrapIN5clang12FunctionDeclEKPKNS1_4DeclES5_E4doitERS6_(ptr noundef nonnull align 8 dereferenceable(8) %0) #0 comdat align 2 {
  %2 = alloca ptr, align 8
  %3 = alloca ptr, align 8
  store ptr %0, ptr %2, align 8
  %4 = load ptr, ptr %2, align 8
  %5 = call noundef ptr @_ZN4llvm13simplify_typeIKPKN5clang4DeclEE18getSimplifiedValueERS5_(ptr noundef nonnull align 8 dereferenceable(8) %4)
  store ptr %5, ptr %3, align 8
  %6 = call noundef zeroext i1 @_ZN4llvm13isa_impl_wrapIN5clang12FunctionDeclEPKNS1_4DeclES5_E4doitERKS5_(ptr noundef nonnull align 8 dereferenceable(8) %3)
  ret i1 %6
}

; Function Attrs: mustprogress nounwind uwtable
define linkonce_odr hidden noundef nonnull align 8 dereferenceable(8) ptr @_ZN4llvm13simplify_typeIPKN5clang4DeclEE18getSimplifiedValueERS4_(ptr noundef nonnull align 8 dereferenceable(8) %0) #0 comdat align 2 {
  %2 = alloca ptr, align 8
  store ptr %0, ptr %2, align 8
  %3 = load ptr, ptr %2, align 8
  ret ptr %3
}

; Function Attrs: mustprogress nounwind uwtable
define linkonce_odr hidden noundef zeroext i1 @_ZN4llvm14CastIsPossibleIN5clang12FunctionDeclEPKNS1_4DeclEvE10isPossibleERKS5_(ptr noundef nonnull align 8 dereferenceable(8) %0) #0 comdat align 2 {
  %2 = alloca ptr, align 8
  store ptr %0, ptr %2, align 8
  %3 = load ptr, ptr %2, align 8
  %4 = call noundef zeroext i1 @_ZN4llvm13isa_impl_wrapIN5clang12FunctionDeclEKPKNS1_4DeclES5_E4doitERS6_(ptr noundef nonnull align 8 dereferenceable(8) %3)
  ret i1 %4
}

; Function Attrs: mustprogress nounwind uwtable
define linkonce_odr hidden noundef ptr @_ZN4llvm13simplify_typeIKPKN5clang4DeclEE18getSimplifiedValueERS5_(ptr noundef nonnull align 8 dereferenceable(8) %0) #0 comdat align 2 {
  %2 = alloca ptr, align 8
  store ptr %0, ptr %2, align 8
  %3 = load ptr, ptr %2, align 8
  %4 = call noundef nonnull align 8 dereferenceable(8) ptr @_ZN4llvm13simplify_typeIPKN5clang4DeclEE18getSimplifiedValueERS4_(ptr noundef nonnull align 8 dereferenceable(8) %3)
  %5 = load ptr, ptr %4, align 8
  ret ptr %5
}

; Function Attrs: mustprogress nounwind uwtable
define linkonce_odr hidden i32 @_ZNK5clang11SourceRange8getBeginEv(ptr noundef nonnull align 4 dereferenceable(8) %0) #0 comdat align 2 {
  %2 = alloca %"class.clang::SourceLocation", align 4
  %3 = alloca ptr, align 8
  store ptr %0, ptr %3, align 8
  %4 = load ptr, ptr %3, align 8
  %5 = getelementptr inbounds nuw %"class.clang::SourceRange", ptr %4, i32 0, i32 0
  call void @llvm.memcpy.p0.p0.i64(ptr align 4 %2, ptr align 4 %5, i64 4, i1 false)
  %6 = getelementptr inbounds nuw %"class.clang::SourceLocation", ptr %2, i32 0, i32 0
  %7 = load i32, ptr %6, align 4
  ret i32 %7
}

; Function Attrs: mustprogress nounwind uwtable
define linkonce_odr hidden noundef zeroext i1 @_ZN4llvm8CastInfoIN5clang12FunctionDeclEKPKNS1_4DeclEvE10isPossibleERS6_(ptr noundef nonnull align 8 dereferenceable(8) %0) #0 comdat align 2 {
  %2 = alloca ptr, align 8
  %3 = alloca ptr, align 8
  store ptr %0, ptr %2, align 8
  %4 = load ptr, ptr %2, align 8
  %5 = call noundef ptr @_ZN4llvm13simplify_typeIKPKN5clang4DeclEE18getSimplifiedValueERS5_(ptr noundef nonnull align 8 dereferenceable(8) %4)
  store ptr %5, ptr %3, align 8
  %6 = call noundef zeroext i1 @_ZN4llvm14CastIsPossibleIN5clang12FunctionDeclEPKNS1_4DeclEvE10isPossibleERKS5_(ptr noundef nonnull align 8 dereferenceable(8) %3)
  ret i1 %6
}

; Function Attrs: mustprogress nounwind uwtable
define linkonce_odr hidden noundef zeroext i1 @_ZNK5clang19AttributeCommonInfo25isRegularKeywordAttributeEv(ptr noundef nonnull align 8 dereferenceable(32) %0) #0 comdat align 2 {
  %2 = alloca ptr, align 8
  store ptr %0, ptr %2, align 8
  %3 = load ptr, ptr %2, align 8
  %4 = getelementptr inbounds nuw %"class.clang::AttributeCommonInfo", ptr %3, i32 0, i32 4
  %5 = load i32, ptr %4, align 4
  %6 = lshr i32 %5, 25
  %7 = and i32 %6, 1
  %8 = icmp ne i32 %7, 0
  ret i1 %8
}

; Function Attrs: mustprogress nounwind uwtable
define linkonce_odr hidden i32 @_ZNK5clang19AttributeCommonInfo6getLocEv(ptr noundef nonnull align 8 dereferenceable(32) %0) #0 comdat align 2 {
  %2 = alloca %"class.clang::SourceLocation", align 4
  %3 = alloca ptr, align 8
  store ptr %0, ptr %3, align 8
  %4 = load ptr, ptr %3, align 8
  %5 = getelementptr inbounds nuw %"class.clang::AttributeCommonInfo", ptr %4, i32 0, i32 2
  %6 = call i32 @_ZNK5clang11SourceRange8getBeginEv(ptr noundef nonnull align 4 dereferenceable(8) %5)
  %7 = getelementptr inbounds nuw %"class.clang::SourceLocation", ptr %2, i32 0, i32 0
  store i32 %6, ptr %7, align 4
  %8 = getelementptr inbounds nuw %"class.clang::SourceLocation", ptr %2, i32 0, i32 0
  %9 = load i32, ptr %8, align 4
  ret i32 %9
}

; Function Attrs: mustprogress nounwind uwtable
define linkonce_odr hidden noundef zeroext i1 @_ZN4llvm3isaIN5clang12FunctionDeclEPKNS1_4DeclEEEbRKT0_(ptr noundef nonnull align 8 dereferenceable(8) %0) #0 comdat {
  %2 = alloca ptr, align 8
  store ptr %0, ptr %2, align 8
  %3 = load ptr, ptr %2, align 8
  %4 = call noundef zeroext i1 @_ZN4llvm8CastInfoIN5clang12FunctionDeclEKPKNS1_4DeclEvE10isPossibleERS6_(ptr noundef nonnull align 8 dereferenceable(8) %3)
  ret i1 %4
}

; Function Attrs: mustprogress nounwind uwtable
define internal noundef zeroext i1 @_ZNK12_GLOBAL__N_134ParsedAttrInfoDLLExportStaticLocal20diagAppertainsToDeclERN5clang4SemaERKNS1_10ParsedAttrEPKNS1_4DeclE(ptr noundef nonnull align 8 dereferenceable(48) %0, ptr noundef nonnull align 8 dereferenceable(17560) %1, ptr noundef nonnull align 8 dereferenceable(72) %2, ptr noundef %3) unnamed_addr #0 align 2 {
  %5 = alloca i1, align 1
  %6 = alloca ptr, align 8
  %7 = alloca ptr, align 8
  %8 = alloca ptr, align 8
  %9 = alloca ptr, align 8
  %10 = alloca %"class.clang::SemaBase::SemaDiagnosticBuilder", align 8
  %11 = alloca %"class.clang::SourceLocation", align 4
  %12 = alloca i8, align 1
  store ptr %0, ptr %6, align 8
  store ptr %1, ptr %7, align 8
  store ptr %2, ptr %8, align 8
  store ptr %3, ptr %9, align 8
  %13 = call noundef zeroext i1 @_ZN4llvm3isaIN5clang12FunctionDeclEPKNS1_4DeclEEEbRKT0_(ptr noundef nonnull align 8 dereferenceable(8) %9)
  br i1 %13, label %29, label %14

14:                                               ; preds = %4
  %15 = load ptr, ptr %7, align 8
  %16 = getelementptr inbounds i8, ptr %15, i64 8
  %17 = load ptr, ptr %8, align 8
  %18 = call i32 @_ZNK5clang19AttributeCommonInfo6getLocEv(ptr noundef nonnull align 8 dereferenceable(32) %17)
  %19 = getelementptr inbounds nuw %"class.clang::SourceLocation", ptr %11, i32 0, i32 0
  store i32 %18, ptr %19, align 4
  %20 = getelementptr inbounds nuw %"class.clang::SourceLocation", ptr %11, i32 0, i32 0
  %21 = load i32, ptr %20, align 4
  call void @_ZN5clang8SemaBase4DiagENS_14SourceLocationEjb(ptr dead_on_unwind writable sret(%"class.clang::SemaBase::SemaDiagnosticBuilder") align 8 %10, ptr noundef nonnull align 8 dereferenceable(8) %16, i32 %21, i32 noundef 6180, i1 noundef zeroext false)
  %22 = load ptr, ptr %8, align 8
  %23 = call noundef nonnull align 8 dereferenceable(96) ptr @_ZN5clanglsINS_10ParsedAttrEEERKNS_8SemaBase21SemaDiagnosticBuilderES5_RKT_(ptr noundef nonnull align 8 dereferenceable(96) %10, ptr noundef nonnull align 8 dereferenceable(72) %22)
  %24 = load ptr, ptr %8, align 8
  %25 = call noundef zeroext i1 @_ZNK5clang19AttributeCommonInfo25isRegularKeywordAttributeEv(ptr noundef nonnull align 8 dereferenceable(32) %24)
  %26 = zext i1 %25 to i8
  store i8 %26, ptr %12, align 1
  %27 = call noundef nonnull align 8 dereferenceable(96) ptr @_ZNK5clang8SemaBase21SemaDiagnosticBuilderlsIbvEERKS1_OT_(ptr noundef nonnull align 8 dereferenceable(96) %23, ptr noundef nonnull align 1 dereferenceable(1) %12)
  %28 = call noundef nonnull align 8 dereferenceable(96) ptr @_ZN5clanglsIA10_cEERKNS_8SemaBase21SemaDiagnosticBuilderES5_RKT_(ptr noundef nonnull align 8 dereferenceable(96) %27, ptr noundef nonnull align 1 dereferenceable(10) @.str.1337)
  call void @_ZN5clang8SemaBase21SemaDiagnosticBuilderD1Ev(ptr noundef nonnull align 8 dereferenceable(96) %10) #4
  store i1 false, ptr %5, align 1
  br label %30

29:                                               ; preds = %4
  store i1 true, ptr %5, align 1
  br label %30

30:                                               ; preds = %29, %14
  %31 = load i1, ptr %5, align 1
  ret i1 %31
}